; ModuleID = '6/1810.c'
source_filename = "6/1810.c"
target datalayout = "e-m:e-p270:32:32-p271:32:32-p272:64:64-i64:64-f80:128-n8:16:32:64-S128"
target triple = "x86_64-pc-linux-gnu"

@.str = private unnamed_addr constant [3 x i8] c"%d\00", align 1
@.str.1 = private unnamed_addr constant [6 x i8] c"%d %d\00", align 1
@.str.2 = private unnamed_addr constant [4 x i8] c"%d\0A\00", align 1

; Function Attrs: noinline nounwind uwtable
define dso_local i32 @main() #0 {
  %1 = alloca i32, align 4
  %2 = alloca i32, align 4
  %3 = alloca i32, align 4
  %4 = alloca i32, align 4
  %5 = alloca i32, align 4
  %6 = alloca i32, align 4
  %7 = alloca i32, align 4
  %8 = alloca i32, align 4
  %9 = alloca i32, align 4
  %10 = alloca i32, align 4
  %11 = alloca i32, align 4
  %12 = alloca i32, align 4
  %13 = alloca [100 x [100 x i32]], align 16
  %14 = alloca i32*, align 8
  store i32 0, i32* %1, align 4
  %15 = call i32 (i8*, ...) @__isoc99_scanf(i8* getelementptr inbounds ([3 x i8], [3 x i8]* @.str, i64 0, i64 0), i32* %2)
  %16 = load i32, i32* %2, align 4
  %17 = sext i32 %16 to i64
  %18 = mul i64 4, %17
  %19 = call noalias i8* @malloc(i64 %18) #3
  %20 = bitcast i8* %19 to i32*
  store i32* %20, i32** %14, align 8
  store i32 0, i32* %3, align 4
  br label %21

21:                                               ; preds = %146, %0
  %22 = load i32, i32* %3, align 4
  %23 = load i32, i32* %2, align 4
  %24 = icmp slt i32 %22, %23
  br i1 %24, label %25, label %149

25:                                               ; preds = %21
  store i32 0, i32* %8, align 4
  store i32 0, i32* %9, align 4
  store i32 0, i32* %10, align 4
  store i32 0, i32* %11, align 4
  store i32 0, i32* %12, align 4
  %26 = call i32 (i8*, ...) @__isoc99_scanf(i8* getelementptr inbounds ([6 x i8], [6 x i8]* @.str.1, i64 0, i64 0), i32* %4, i32* %5)
  store i32 0, i32* %6, align 4
  br label %27

27:                                               ; preds = %48, %25
  %28 = load i32, i32* %6, align 4
  %29 = load i32, i32* %4, align 4
  %30 = icmp slt i32 %28, %29
  br i1 %30, label %31, label %51

31:                                               ; preds = %27
  store i32 0, i32* %7, align 4
  br label %32

32:                                               ; preds = %44, %31
  %33 = load i32, i32* %7, align 4
  %34 = load i32, i32* %5, align 4
  %35 = icmp slt i32 %33, %34
  br i1 %35, label %36, label %47

36:                                               ; preds = %32
  %37 = load i32, i32* %6, align 4
  %38 = sext i32 %37 to i64
  %39 = getelementptr inbounds [100 x [100 x i32]], [100 x [100 x i32]]* %13, i64 0, i64 %38
  %40 = load i32, i32* %7, align 4
  %41 = sext i32 %40 to i64
  %42 = getelementptr inbounds [100 x i32], [100 x i32]* %39, i64 0, i64 %41
  %43 = call i32 (i8*, ...) @__isoc99_scanf(i8* getelementptr inbounds ([3 x i8], [3 x i8]* @.str, i64 0, i64 0), i32* %42)
  br label %44

44:                                               ; preds = %36
  %45 = load i32, i32* %7, align 4
  %46 = add nsw i32 %45, 1
  store i32 %46, i32* %7, align 4
  br label %32

47:                                               ; preds = %32
  br label %48

48:                                               ; preds = %47
  %49 = load i32, i32* %6, align 4
  %50 = add nsw i32 %49, 1
  store i32 %50, i32* %6, align 4
  br label %27

51:                                               ; preds = %27
  store i32 0, i32* %6, align 4
  br label %52

52:                                               ; preds = %74, %51
  %53 = load i32, i32* %6, align 4
  %54 = load i32, i32* %4, align 4
  %55 = icmp slt i32 %53, %54
  br i1 %55, label %56, label %77

56:                                               ; preds = %52
  %57 = load i32, i32* %6, align 4
  %58 = sext i32 %57 to i64
  %59 = getelementptr inbounds [100 x [100 x i32]], [100 x [100 x i32]]* %13, i64 0, i64 %58
  %60 = getelementptr inbounds [100 x i32], [100 x i32]* %59, i64 0, i64 0
  %61 = load i32, i32* %60, align 16
  %62 = load i32, i32* %8, align 4
  %63 = add nsw i32 %62, %61
  store i32 %63, i32* %8, align 4
  %64 = load i32, i32* %6, align 4
  %65 = sext i32 %64 to i64
  %66 = getelementptr inbounds [100 x [100 x i32]], [100 x [100 x i32]]* %13, i64 0, i64 %65
  %67 = load i32, i32* %5, align 4
  %68 = sub nsw i32 %67, 1
  %69 = sext i32 %68 to i64
  %70 = getelementptr inbounds [100 x i32], [100 x i32]* %66, i64 0, i64 %69
  %71 = load i32, i32* %70, align 4
  %72 = load i32, i32* %9, align 4
  %73 = add nsw i32 %72, %71
  store i32 %73, i32* %9, align 4
  br label %74

74:                                               ; preds = %56
  %75 = load i32, i32* %6, align 4
  %76 = add nsw i32 %75, 1
  store i32 %76, i32* %6, align 4
  br label %52

77:                                               ; preds = %52
  store i32 0, i32* %7, align 4
  br label %78

78:                                               ; preds = %100, %77
  %79 = load i32, i32* %7, align 4
  %80 = load i32, i32* %5, align 4
  %81 = icmp slt i32 %79, %80
  br i1 %81, label %82, label %103

82:                                               ; preds = %78
  %83 = getelementptr inbounds [100 x [100 x i32]], [100 x [100 x i32]]* %13, i64 0, i64 0
  %84 = load i32, i32* %7, align 4
  %85 = sext i32 %84 to i64
  %86 = getelementptr inbounds [100 x i32], [100 x i32]* %83, i64 0, i64 %85
  %87 = load i32, i32* %86, align 4
  %88 = load i32, i32* %10, align 4
  %89 = add nsw i32 %88, %87
  store i32 %89, i32* %10, align 4
  %90 = load i32, i32* %4, align 4
  %91 = sub nsw i32 %90, 1
  %92 = sext i32 %91 to i64
  %93 = getelementptr inbounds [100 x [100 x i32]], [100 x [100 x i32]]* %13, i64 0, i64 %92
  %94 = load i32, i32* %7, align 4
  %95 = sext i32 %94 to i64
  %96 = getelementptr inbounds [100 x i32], [100 x i32]* %93, i64 0, i64 %95
  %97 = load i32, i32* %96, align 4
  %98 = load i32, i32* %11, align 4
  %99 = add nsw i32 %98, %97
  store i32 %99, i32* %11, align 4
  br label %100

100:                                              ; preds = %82
  %101 = load i32, i32* %7, align 4
  %102 = add nsw i32 %101, 1
  store i32 %102, i32* %7, align 4
  br label %78

103:                                              ; preds = %78
  %104 = load i32, i32* %8, align 4
  %105 = load i32, i32* %9, align 4
  %106 = add nsw i32 %104, %105
  %107 = load i32, i32* %10, align 4
  %108 = add nsw i32 %106, %107
  %109 = load i32, i32* %11, align 4
  %110 = add nsw i32 %108, %109
  %111 = getelementptr inbounds [100 x [100 x i32]], [100 x [100 x i32]]* %13, i64 0, i64 0
  %112 = getelementptr inbounds [100 x i32], [100 x i32]* %111, i64 0, i64 0
  %113 = load i32, i32* %112, align 16
  %114 = sub nsw i32 %110, %113
  %115 = getelementptr inbounds [100 x [100 x i32]], [100 x [100 x i32]]* %13, i64 0, i64 0
  %116 = load i32, i32* %5, align 4
  %117 = sub nsw i32 %116, 1
  %118 = sext i32 %117 to i64
  %119 = getelementptr inbounds [100 x i32], [100 x i32]* %115, i64 0, i64 %118
  %120 = load i32, i32* %119, align 4
  %121 = sub nsw i32 %114, %120
  %122 = load i32, i32* %4, align 4
  %123 = sub nsw i32 %122, 1
  %124 = sext i32 %123 to i64
  %125 = getelementptr inbounds [100 x [100 x i32]], [100 x [100 x i32]]* %13, i64 0, i64 %124
  %126 = getelementptr inbounds [100 x i32], [100 x i32]* %125, i64 0, i64 0
  %127 = load i32, i32* %126, align 16
  %128 = sub nsw i32 %121, %127
  %129 = load i32, i32* %4, align 4
  %130 = sub nsw i32 %129, 1
  %131 = sext i32 %130 to i64
  %132 = getelementptr inbounds [100 x [100 x i32]], [100 x [100 x i32]]* %13, i64 0, i64 %131
  %133 = load i32, i32* %5, align 4
  %134 = sub nsw i32 %133, 1
  %135 = sext i32 %134 to i64
  %136 = getelementptr inbounds [100 x i32], [100 x i32]* %132, i64 0, i64 %135
  %137 = load i32, i32* %136, align 4
  %138 = sub nsw i32 %128, %137
  %139 = load i32, i32* %12, align 4
  %140 = add nsw i32 %139, %138
  store i32 %140, i32* %12, align 4
  %141 = load i32, i32* %12, align 4
  %142 = load i32*, i32** %14, align 8
  %143 = load i32, i32* %3, align 4
  %144 = sext i32 %143 to i64
  %145 = getelementptr inbounds i32, i32* %142, i64 %144
  store i32 %141, i32* %145, align 4
  br label %146

146:                                              ; preds = %103
  %147 = load i32, i32* %3, align 4
  %148 = add nsw i32 %147, 1
  store i32 %148, i32* %3, align 4
  br label %21

149:                                              ; preds = %21
  store i32 0, i32* %3, align 4
  br label %150

150:                                              ; preds = %161, %149
  %151 = load i32, i32* %3, align 4
  %152 = load i32, i32* %2, align 4
  %153 = icmp slt i32 %151, %152
  br i1 %153, label %154, label %164

154:                                              ; preds = %150
  %155 = load i32*, i32** %14, align 8
  %156 = load i32, i32* %3, align 4
  %157 = sext i32 %156 to i64
  %158 = getelementptr inbounds i32, i32* %155, i64 %157
  %159 = load i32, i32* %158, align 4
  %160 = call i32 (i8*, ...) @printf(i8* getelementptr inbounds ([4 x i8], [4 x i8]* @.str.2, i64 0, i64 0), i32 %159)
  br label %161

161:                                              ; preds = %154
  %162 = load i32, i32* %3, align 4
  %163 = add nsw i32 %162, 1
  store i32 %163, i32* %3, align 4
  br label %150

164:                                              ; preds = %150
  ret i32 0
}

declare dso_local i32 @__isoc99_scanf(i8*, ...) #1

; Function Attrs: nounwind
declare dso_local noalias i8* @malloc(i64) #2

declare dso_local i32 @printf(i8*, ...) #1


!llvm.module.flags = !{!0}
!llvm.ident = !{!1}

!0 = !{i32 1, !"wchar_size", i32 4}
!1 = !{!"clang version 10.0.0-4ubuntu1 "}
